; Function Attrs: nounwind uwtable
define i32 @pmix_pnet_base_update_fabric(ptr noundef %0) local_unnamed_addr #0 {
  %2 = icmp eq ptr %0, null
  br i1 %2, label %.loopexit.thread, label %3

3:                                                ; preds = %1
  %4 = getelementptr inbounds nuw i8, ptr %0, i64 32
  %5 = load ptr, ptr %4, align 8, !tbaa !109
  %6 = icmp eq ptr %5, null
  br i1 %6, label %.preheader, label %25

.preheader:                                       ; preds = %3
  %.030 = load ptr, ptr getelementptr inbounds nuw (i8, ptr @pmix_pnet_globals, i64 512), align 8, !tbaa !22
  %.not31 = icmp eq ptr %.030, getelementptr inbounds nuw (i8, ptr @pmix_pnet_globals, i64 392)
  br i1 %.not31, label %.loopexit.thread, label %.lr.ph

.lr.ph:                                           ; preds = %.preheader
  %7 = getelementptr inbounds nuw i8, ptr %0, i64 8
  %8 = load i64, ptr %7, align 8, !tbaa !100
  br label %9

9:                                                ; preds = %.lr.ph, %23
  %.033 = phi ptr [ %.030, %.lr.ph ], [ %.0, %23 ]
  %.01932 = phi ptr [ null, %.lr.ph ], [ %.1, %23 ]
  %10 = getelementptr inbounds nuw i8, ptr %.033, i64 152
  %11 = load i64, ptr %10, align 8, !tbaa !103
  %12 = icmp eq i64 %8, %11
  br i1 %12, label %.sink.split, label %13

13:                                               ; preds = %9
  %14 = load ptr, ptr %0, align 8, !tbaa !105
  %.not28 = icmp eq ptr %14, null
  br i1 %.not28, label %23, label %15

15:                                               ; preds = %13
  %16 = getelementptr inbounds nuw i8, ptr %.033, i64 144
  %17 = load ptr, ptr %16, align 8, !tbaa !106
  %.not29 = icmp eq ptr %17, null
  br i1 %.not29, label %23, label %18

18:                                               ; preds = %15
  %19 = tail call i32 @strcmp(ptr noundef nonnull dereferenceable(1) %17, ptr noundef nonnull dereferenceable(1) %14) #12
  %20 = icmp eq i32 %19, 0
  br i1 %20, label %.sink.split, label %23

.sink.split:                                      ; preds = %18, %9
  %21 = getelementptr inbounds nuw i8, ptr %.033, i64 160
  %22 = load ptr, ptr %21, align 8, !tbaa !107
  br label %23

23:                                               ; preds = %.sink.split, %18, %15, %13
  %.1 = phi ptr [ %.01932, %18 ], [ %.01932, %15 ], [ %.01932, %13 ], [ %22, %.sink.split ]
  %24 = getelementptr inbounds nuw i8, ptr %.033, i64 120
  %.0 = load ptr, ptr %24, align 8, !tbaa !22
  %.not = icmp eq ptr %.0, getelementptr inbounds nuw (i8, ptr @pmix_pnet_globals, i64 392)
  br i1 %.not, label %.loopexit, label %9, !llvm.loop !110

25:                                               ; preds = %3
  %26 = getelementptr inbounds nuw i8, ptr %5, i64 160
  %27 = load ptr, ptr %26, align 8, !tbaa !107
  br label %.loopexit

.loopexit:                                        ; preds = %23, %25
  %.2 = phi ptr [ %27, %25 ], [ %.1, %23 ]
  %28 = icmp eq ptr %.2, null
  br i1 %28, label %.loopexit.thread, label %29

29:                                               ; preds = %.loopexit
  %30 = getelementptr inbounds nuw i8, ptr %.2, i64 96
  %31 = load ptr, ptr %30, align 8, !tbaa !111
  %.not27 = icmp eq ptr %31, null
  br i1 %.not27, label %.loopexit.thread, label %32

32:                                               ; preds = %29
  %33 = tail call i32 %31(ptr noundef nonnull %0) #11
  br label %.loopexit.thread

.loopexit.thread:                                 ; preds = %.preheader, %29, %32, %.loopexit, %1
  %.020 = phi i32 [ -27, %1 ], [ -27, %.loopexit ], [ %33, %32 ], [ 0, %29 ], [ -27, %.preheader ]
  ret i32 %.020
}